; Function Attrs: mustprogress uwtable
define void @_ZN6casadi2MX7enlargeExxRKSt6vectorIxSaIxEES5_b(ptr noundef nonnull align 8 dereferenceable(8) %0, i64 noundef %1, i64 noundef %2, ptr noundef nonnull align 8 dereferenceable(24) %3, ptr noundef nonnull align 8 dereferenceable(24) %4, i1 noundef zeroext %5) local_unnamed_addr #3 align 2 personality ptr @__gxx_personality_v0 {
  %7 = alloca %"class.casadi::Sparsity", align 8
  %8 = alloca %"class.casadi::MX", align 8
  %9 = alloca %"class.std::vector", align 8
  %10 = tail call noundef ptr @_ZNK6casadi12SharedObjectptEv(ptr noundef nonnull align 8 dereferenceable(8) %0)
  %11 = getelementptr inbounds i8, ptr %10, i64 56
  call void @_ZN6casadi12SharedObjectC2ERKS0_(ptr noundef nonnull align 8 dereferenceable(8) %7, ptr noundef nonnull align 8 dereferenceable(8) %11)
  invoke void @_ZN6casadi8Sparsity7enlargeExxRKSt6vectorIxSaIxEES5_b(ptr noundef nonnull align 8 dereferenceable(8) %7, i64 noundef %1, i64 noundef %2, ptr noundef nonnull align 8 dereferenceable(24) %3, ptr noundef nonnull align 8 dereferenceable(24) %4, i1 noundef zeroext %5)
          to label %12 unwind label %25

12:                                               ; preds = %6
  %13 = invoke noundef ptr @_ZNK6casadi12SharedObjectptEv(ptr noundef nonnull align 8 dereferenceable(8) %0)
          to label %_ZN6casadi2MXptEv.exit unwind label %25

_ZN6casadi2MXptEv.exit:                           ; preds = %12
  %14 = invoke noundef ptr @_ZNK6casadi12SharedObjectptEv(ptr noundef nonnull align 8 dereferenceable(8) %0)
          to label %.noexc unwind label %25

.noexc:                                           ; preds = %_ZN6casadi2MXptEv.exit
  %15 = getelementptr inbounds i8, ptr %14, i64 56
  %16 = invoke noundef i64 @_ZNK6casadi8Sparsity3nnzEv(ptr noundef nonnull align 8 dereferenceable(8) %15)
          to label %_ZNK6casadi13GenericMatrixINS_2MXEE3nnzEv.exit unwind label %25

_ZNK6casadi13GenericMatrixINS_2MXEE3nnzEv.exit:   ; preds = %.noexc
  invoke void @_ZN6casadi5rangeEx(ptr dead_on_unwind nonnull writable sret(%"class.std::vector") align 8 %9, i64 noundef %16)
          to label %17 unwind label %25

17:                                               ; preds = %_ZNK6casadi13GenericMatrixINS_2MXEE3nnzEv.exit
  %18 = load ptr, ptr %13, align 8
  %19 = getelementptr inbounds i8, ptr %18, i64 616
  %20 = load ptr, ptr %19, align 8
  invoke void %20(ptr dead_on_unwind nonnull writable sret(%"class.casadi::MX") align 8 %8, ptr noundef nonnull align 8 dereferenceable(64) %13, ptr noundef nonnull align 8 dereferenceable(8) %7, ptr noundef nonnull align 8 dereferenceable(24) %9)
          to label %21 unwind label %27

21:                                               ; preds = %17
  %22 = load ptr, ptr %9, align 8
  %.not.i.i.i = icmp eq ptr %22, null
  br i1 %.not.i.i.i, label %_ZNSt6vectorIxSaIxEED2Ev.exit, label %23

23:                                               ; preds = %21
  call void @_ZdlPv(ptr noundef nonnull %22) #30
  br label %_ZNSt6vectorIxSaIxEED2Ev.exit

_ZNSt6vectorIxSaIxEED2Ev.exit:                    ; preds = %21, %23
  %24 = invoke noundef nonnull align 8 dereferenceable(8) ptr @_ZN6casadi12SharedObjectaSERKS0_(ptr noundef nonnull align 8 dereferenceable(8) %0, ptr noundef nonnull align 8 dereferenceable(8) %8)
          to label %_ZN6casadi2MXaSERKS0_.exit unwind label %31

_ZN6casadi2MXaSERKS0_.exit:                       ; preds = %_ZNSt6vectorIxSaIxEED2Ev.exit
  call void @_ZN6casadi2MXD1Ev(ptr noundef nonnull align 8 dereferenceable(8) %8) #27
  call void @_ZN6casadi12SharedObjectD2Ev(ptr noundef nonnull align 8 dereferenceable(8) %7) #27
  ret void

25:                                               ; preds = %.noexc, %_ZN6casadi2MXptEv.exit, %12, %_ZNK6casadi13GenericMatrixINS_2MXEE3nnzEv.exit, %6
  %26 = landingpad { ptr, i32 }
          cleanup
  br label %_ZNSt6vectorIxSaIxEED2Ev.exit12

27:                                               ; preds = %17
  %28 = landingpad { ptr, i32 }
          cleanup
  %29 = load ptr, ptr %9, align 8
  %.not.i.i.i11 = icmp eq ptr %29, null
  br i1 %.not.i.i.i11, label %_ZNSt6vectorIxSaIxEED2Ev.exit12, label %30

30:                                               ; preds = %27
  call void @_ZdlPv(ptr noundef nonnull %29) #30
  br label %_ZNSt6vectorIxSaIxEED2Ev.exit12

31:                                               ; preds = %_ZNSt6vectorIxSaIxEED2Ev.exit
  %32 = landingpad { ptr, i32 }
          cleanup
  call void @_ZN6casadi2MXD1Ev(ptr noundef nonnull align 8 dereferenceable(8) %8) #27
  br label %_ZNSt6vectorIxSaIxEED2Ev.exit12

_ZNSt6vectorIxSaIxEED2Ev.exit12:                  ; preds = %30, %27, %31, %25
  %.pn = phi { ptr, i32 } [ %32, %31 ], [ %26, %25 ], [ %28, %27 ], [ %28, %30 ]
  call void @_ZN6casadi12SharedObjectD2Ev(ptr noundef nonnull align 8 dereferenceable(8) %7) #27
  resume { ptr, i32 } %.pn
}